target datalayout = "e-m:e-p270:32:32-p271:32:32-p272:64:64-i64:64-i128:128-f80:128-n8:16:32:64-S128"
target triple = "x86_64-pc-linux-gnu"

%"class.glslang::TParseVersions" = type { ptr, i8, i32, ptr, i32, i32, %"struct.glslang::SpvVersion", ptr, %"class.glslang::TMap", %"class.glslang::TMap.1", %"class.glslang::TVector", i32, i32, ptr }
%"struct.glslang::SpvVersion" = type <{ i32, i32, i32, i32, i8, [3 x i8] }>
%"class.glslang::TMap" = type { %"class.std::map" }
%"class.std::map" = type { %"class.std::_Rb_tree" }
%"class.std::_Rb_tree" = type { %"struct.std::_Rb_tree<std::__cxx11::basic_string<char, std::char_traits<char>, glslang::pool_allocator<char>>, std::pair<const std::__cxx11::basic_string<char, std::char_traits<char>, glslang::pool_allocator<char>>, glslang::TExtensionBehavior>, std::_Select1st<std::pair<const std::__cxx11::basic_string<char, std::char_traits<char>, glslang::pool_allocator<char>>, glslang::TExtensionBehavior>>, std::less<std::__cxx11::basic_string<char, std::char_traits<char>, glslang::pool_allocator<char>>>, glslang::pool_allocator<std::pair<const std::__cxx11::basic_string<char, std::char_traits<char>, glslang::pool_allocator<char>>, glslang::TExtensionBehavior>>>::_Rb_tree_impl" }
%"struct.std::_Rb_tree<std::__cxx11::basic_string<char, std::char_traits<char>, glslang::pool_allocator<char>>, std::pair<const std::__cxx11::basic_string<char, std::char_traits<char>, glslang::pool_allocator<char>>, glslang::TExtensionBehavior>, std::_Select1st<std::pair<const std::__cxx11::basic_string<char, std::char_traits<char>, glslang::pool_allocator<char>>, glslang::TExtensionBehavior>>, std::less<std::__cxx11::basic_string<char, std::char_traits<char>, glslang::pool_allocator<char>>>, glslang::pool_allocator<std::pair<const std::__cxx11::basic_string<char, std::char_traits<char>, glslang::pool_allocator<char>>, glslang::TExtensionBehavior>>>::_Rb_tree_impl" = type { %"class.glslang::pool_allocator.0", %"struct.std::_Rb_tree_key_compare", %"struct.std::_Rb_tree_header" }
%"class.glslang::pool_allocator.0" = type { ptr }
%"struct.std::_Rb_tree_key_compare" = type { %"struct.std::less" }
%"struct.std::less" = type { i8 }
%"struct.std::_Rb_tree_header" = type { %"struct.std::_Rb_tree_node_base", i64 }
%"struct.std::_Rb_tree_node_base" = type { i32, ptr, ptr, ptr }
%"class.glslang::TMap.1" = type { %"class.std::map.2" }
%"class.std::map.2" = type { %"class.std::_Rb_tree.3" }
%"class.std::_Rb_tree.3" = type { %"struct.std::_Rb_tree<std::__cxx11::basic_string<char, std::char_traits<char>, glslang::pool_allocator<char>>, std::pair<const std::__cxx11::basic_string<char, std::char_traits<char>, glslang::pool_allocator<char>>, unsigned int>, std::_Select1st<std::pair<const std::__cxx11::basic_string<char, std::char_traits<char>, glslang::pool_allocator<char>>, unsigned int>>, std::less<std::__cxx11::basic_string<char, std::char_traits<char>, glslang::pool_allocator<char>>>, glslang::pool_allocator<std::pair<const std::__cxx11::basic_string<char, std::char_traits<char>, glslang::pool_allocator<char>>, unsigned int>>>::_Rb_tree_impl" }
%"struct.std::_Rb_tree<std::__cxx11::basic_string<char, std::char_traits<char>, glslang::pool_allocator<char>>, std::pair<const std::__cxx11::basic_string<char, std::char_traits<char>, glslang::pool_allocator<char>>, unsigned int>, std::_Select1st<std::pair<const std::__cxx11::basic_string<char, std::char_traits<char>, glslang::pool_allocator<char>>, unsigned int>>, std::less<std::__cxx11::basic_string<char, std::char_traits<char>, glslang::pool_allocator<char>>>, glslang::pool_allocator<std::pair<const std::__cxx11::basic_string<char, std::char_traits<char>, glslang::pool_allocator<char>>, unsigned int>>>::_Rb_tree_impl" = type { %"class.glslang::pool_allocator.4", %"struct.std::_Rb_tree_key_compare", %"struct.std::_Rb_tree_header" }
%"class.glslang::pool_allocator.4" = type { ptr }
%"class.glslang::TQualifier" = type <{ ptr, i64, i8, [3 x i8], i32, i32, i64, i64, i8, i8, i8, i8, i8, [3 x i8], i32, i8, i8, i8, i8, i32, ptr, i8, i8, [6 x i8] }>
%"class.glslang::TVector" = type { %"class.std::vector" }
%"class.std::vector" = type { %"struct.std::_Vector_base" }
%"struct.std::_Vector_base" = type { %"struct.std::_Vector_base<std::__cxx11::basic_string<char, std::char_traits<char>, glslang::pool_allocator<char>>, glslang::pool_allocator<std::__cxx11::basic_string<char, std::char_traits<char>, glslang::pool_allocator<char>>>>::_Vector_impl" }
%"struct.std::_Vector_base<std::__cxx11::basic_string<char, std::char_traits<char>, glslang::pool_allocator<char>>, glslang::pool_allocator<std::__cxx11::basic_string<char, std::char_traits<char>, glslang::pool_allocator<char>>>>::_Vector_impl" = type { %"class.glslang::pool_allocator.5", %"struct.std::_Vector_base<std::__cxx11::basic_string<char, std::char_traits<char>, glslang::pool_allocator<char>>, glslang::pool_allocator<std::__cxx11::basic_string<char, std::char_traits<char>, glslang::pool_allocator<char>>>>::_Vector_impl_data" }
%"class.glslang::pool_allocator.5" = type { ptr }
%"struct.std::_Vector_base<std::__cxx11::basic_string<char, std::char_traits<char>, glslang::pool_allocator<char>>, glslang::pool_allocator<std::__cxx11::basic_string<char, std::char_traits<char>, glslang::pool_allocator<char>>>>::_Vector_impl_data" = type { ptr, ptr, ptr }
%"struct.glslang::TSourceLoc" = type { ptr, i32, i32, i32 }
%"struct.glslang::TTypeLoc" = type { ptr, %"struct.glslang::TSourceLoc" }
%"struct.std::_Vector_base.286" = type { %"struct.std::_Vector_base<glslang::TTypeLoc, glslang::pool_allocator<glslang::TTypeLoc>>::_Vector_impl" }
%"struct.std::_Vector_base<glslang::TTypeLoc, glslang::pool_allocator<glslang::TTypeLoc>>::_Vector_impl" = type { %"class.glslang::pool_allocator.287", %"struct.std::_Vector_base<glslang::TTypeLoc, glslang::pool_allocator<glslang::TTypeLoc>>::_Vector_impl_data" }
%"class.glslang::pool_allocator.287" = type { ptr }
%"struct.std::_Vector_base<glslang::TTypeLoc, glslang::pool_allocator<glslang::TTypeLoc>>::_Vector_impl_data" = type { ptr, ptr, ptr }

; Function Attrs: mustprogress nounwind uwtable
define linkonce_odr void @_ZN7glslang11RoundToPow2IiEEvRT_i(ptr noundef nonnull align 4 dereferenceable(4) %0, i32 noundef %1) #0 comdat {
  %3 = alloca ptr, align 8
  %4 = alloca i32, align 4
  store ptr %0, ptr %3, align 8
  store i32 %1, ptr %4, align 4
  %5 = load ptr, ptr %3, align 8
  %6 = load i32, ptr %5, align 4
  %7 = load i32, ptr %4, align 4
  %8 = add nsw i32 %6, %7
  %9 = sub nsw i32 %8, 1
  %10 = load i32, ptr %4, align 4
  %11 = sub nsw i32 %10, 1
  %12 = xor i32 %11, -1
  %13 = and i32 %9, %12
  %14 = load ptr, ptr %3, align 8
  store i32 %13, ptr %14, align 4
  ret void
}

; Function Attrs: mustprogress nounwind uwtable
define linkonce_odr noundef nonnull align 8 dereferenceable(32) ptr @_ZNSt6vectorIN7glslang8TTypeLocENS0_14pool_allocatorIS1_EEEixEm(ptr noundef nonnull align 8 dereferenceable(32) %0, i64 noundef %1) #0 comdat align 2 {
  %3 = alloca ptr, align 8
  %4 = alloca i64, align 8
  store ptr %0, ptr %3, align 8
  store i64 %1, ptr %4, align 8
  %5 = load ptr, ptr %3, align 8
  %6 = getelementptr inbounds %"struct.std::_Vector_base.286", ptr %5, i32 0, i32 0
  %7 = getelementptr inbounds i8, ptr %6, i64 8
  %8 = getelementptr inbounds %"struct.std::_Vector_base<glslang::TTypeLoc, glslang::pool_allocator<glslang::TTypeLoc>>::_Vector_impl_data", ptr %7, i32 0, i32 0
  %9 = load ptr, ptr %8, align 8
  %10 = load i64, ptr %4, align 8
  %11 = getelementptr inbounds %"struct.glslang::TTypeLoc", ptr %9, i64 %10
  ret ptr %11
}

; Function Attrs: mustprogress nounwind uwtable
define linkonce_odr noundef i64 @_ZNKSt6vectorIN7glslang8TTypeLocENS0_14pool_allocatorIS1_EEE4sizeEv(ptr noundef nonnull align 8 dereferenceable(32) %0) #0 comdat align 2 {
  %2 = alloca ptr, align 8
  store ptr %0, ptr %2, align 8
  %3 = load ptr, ptr %2, align 8
  %4 = getelementptr inbounds %"struct.std::_Vector_base.286", ptr %3, i32 0, i32 0
  %5 = getelementptr inbounds i8, ptr %4, i64 8
  %6 = getelementptr inbounds %"struct.std::_Vector_base<glslang::TTypeLoc, glslang::pool_allocator<glslang::TTypeLoc>>::_Vector_impl_data", ptr %5, i32 0, i32 1
  %7 = load ptr, ptr %6, align 8
  %8 = getelementptr inbounds %"struct.std::_Vector_base.286", ptr %3, i32 0, i32 0
  %9 = getelementptr inbounds i8, ptr %8, i64 8
  %10 = getelementptr inbounds %"struct.std::_Vector_base<glslang::TTypeLoc, glslang::pool_allocator<glslang::TTypeLoc>>::_Vector_impl_data", ptr %9, i32 0, i32 0
  %11 = load ptr, ptr %10, align 8
  %12 = ptrtoint ptr %7 to i64
  %13 = ptrtoint ptr %11 to i64
  %14 = sub i64 %12, %13
  %15 = sdiv exact i64 %14, 32
  ret i64 %15
}

; Function Attrs: mustprogress nounwind uwtable
define linkonce_odr noundef zeroext i1 @_ZNK7glslang10TQualifier12hasXfbOffsetEv(ptr noundef nonnull align 8 dereferenceable(80) %0) #0 comdat align 2 {
  %2 = alloca ptr, align 8
  store ptr %0, ptr %2, align 8
  %3 = load ptr, ptr %2, align 8
  %4 = getelementptr inbounds %"class.glslang::TQualifier", ptr %3, i32 0, i32 7
  %5 = load i64, ptr %4, align 4
  %6 = lshr i64 %5, 18
  %7 = and i64 %6, 8191
  %8 = trunc i64 %7 to i32
  %9 = icmp ne i32 %8, 8191
  ret i1 %9
}

; Function Attrs: mustprogress nounwind uwtable
define linkonce_odr noundef zeroext i1 @_ZNK7glslang10TQualifier12hasXfbBufferEv(ptr noundef nonnull align 8 dereferenceable(80) %0) #0 comdat align 2 {
  %2 = alloca ptr, align 8
  store ptr %0, ptr %2, align 8
  %3 = load ptr, ptr %2, align 8
  %4 = getelementptr inbounds %"class.glslang::TQualifier", ptr %3, i32 0, i32 7
  %5 = load i64, ptr %4, align 4
  %6 = and i64 %5, 15
  %7 = trunc i64 %6 to i32
  %8 = icmp ne i32 %7, 15
  ret i1 %8
}

; Function Attrs: mustprogress nounwind uwtable
define void @_ZN7glslang16HlslParseContext13fixXfbOffsetsERNS_10TQualifierERNS_7TVectorINS_8TTypeLocEEE(ptr noundef nonnull align 8 dereferenceable(2489) %0, ptr noundef nonnull align 8 dereferenceable(80) %1, ptr noundef nonnull align 8 dereferenceable(32) %2) #0 align 2 {
  %4 = alloca ptr, align 8
  %5 = alloca ptr, align 8
  %6 = alloca ptr, align 8
  %7 = alloca i32, align 4
  %8 = alloca i32, align 4
  %9 = alloca ptr, align 8
  %10 = alloca i8, align 1
  %11 = alloca i8, align 1
  %12 = alloca i8, align 1
  %13 = alloca i32, align 4
  store ptr %0, ptr %4, align 8
  store ptr %1, ptr %5, align 8
  store ptr %2, ptr %6, align 8
  %14 = load ptr, ptr %4, align 8
  %15 = load ptr, ptr %5, align 8
  %16 = call noundef zeroext i1 @_ZNK7glslang10TQualifier12hasXfbBufferEv(ptr noundef nonnull align 8 dereferenceable(80) %15)
  br i1 %16, label %17, label %20

17:                                               ; preds = %3
  %18 = load ptr, ptr %5, align 8
  %19 = call noundef zeroext i1 @_ZNK7glslang10TQualifier12hasXfbOffsetEv(ptr noundef nonnull align 8 dereferenceable(80) %18)
  br i1 %19, label %21, label %20

20:                                               ; preds = %17, %3
  br label %100

21:                                               ; preds = %17
  %22 = load ptr, ptr %5, align 8
  %23 = getelementptr inbounds %"class.glslang::TQualifier", ptr %22, i32 0, i32 7
  %24 = load i64, ptr %23, align 4
  %25 = lshr i64 %24, 18
  %26 = and i64 %25, 8191
  %27 = trunc i64 %26 to i32
  store i32 %27, ptr %7, align 4
  store i32 0, ptr %8, align 4
  br label %28

28:                                               ; preds = %91, %21
  %29 = load i32, ptr %8, align 4
  %30 = zext i32 %29 to i64
  %31 = load ptr, ptr %6, align 8
  %32 = call noundef i64 @_ZNKSt6vectorIN7glslang8TTypeLocENS0_14pool_allocatorIS1_EEE4sizeEv(ptr noundef nonnull align 8 dereferenceable(32) %31) #13
  %33 = icmp ult i64 %30, %32
  br i1 %33, label %34, label %94

34:                                               ; preds = %28
  %35 = load ptr, ptr %6, align 8
  %36 = load i32, ptr %8, align 4
  %37 = zext i32 %36 to i64
  %38 = call noundef nonnull align 8 dereferenceable(32) ptr @_ZNSt6vectorIN7glslang8TTypeLocENS0_14pool_allocatorIS1_EEEixEm(ptr noundef nonnull align 8 dereferenceable(32) %35, i64 noundef %37) #13
  %39 = getelementptr inbounds %"struct.glslang::TTypeLoc", ptr %38, i32 0, i32 0
  %40 = load ptr, ptr %39, align 8
  %41 = load ptr, ptr %40, align 8
  %42 = getelementptr inbounds ptr, ptr %41, i64 10
  %43 = load ptr, ptr %42, align 8
  %44 = call noundef nonnull align 8 dereferenceable(80) ptr %43(ptr noundef nonnull align 8 dereferenceable(152) %40)
  store ptr %44, ptr %9, align 8
  store i8 0, ptr %10, align 1
  store i8 0, ptr %11, align 1
  store i8 0, ptr %12, align 1
  %45 = getelementptr inbounds %"class.glslang::TParseVersions", ptr %14, i32 0, i32 7
  %46 = load ptr, ptr %45, align 8
  %47 = load ptr, ptr %6, align 8
  %48 = load i32, ptr %8, align 4
  %49 = zext i32 %48 to i64
  %50 = call noundef nonnull align 8 dereferenceable(32) ptr @_ZNSt6vectorIN7glslang8TTypeLocENS0_14pool_allocatorIS1_EEEixEm(ptr noundef nonnull align 8 dereferenceable(32) %47, i64 noundef %49) #13
  %51 = getelementptr inbounds %"struct.glslang::TTypeLoc", ptr %50, i32 0, i32 0
  %52 = load ptr, ptr %51, align 8
  %53 = call noundef i32 @_ZNK7glslang13TIntermediate18computeTypeXfbSizeERKNS_5TTypeERbS4_S4_(ptr noundef nonnull align 8 dereferenceable(2024) %46, ptr noundef nonnull align 8 dereferenceable(152) %52, ptr noundef nonnull align 1 dereferenceable(1) %10, ptr noundef nonnull align 1 dereferenceable(1) %11, ptr noundef nonnull align 1 dereferenceable(1) %12)
  store i32 %53, ptr %13, align 4
  %54 = load ptr, ptr %9, align 8
  %55 = call noundef zeroext i1 @_ZNK7glslang10TQualifier12hasXfbOffsetEv(ptr noundef nonnull align 8 dereferenceable(80) %54)
  br i1 %55, label %80, label %56

56:                                               ; preds = %34
  %57 = load i8, ptr %10, align 1
  %58 = trunc i8 %57 to i1
  br i1 %58, label %59, label %60

59:                                               ; preds = %56
  call void @_ZN7glslang11RoundToPow2IiEEvRT_i(ptr noundef nonnull align 4 dereferenceable(4) %7, i32 noundef 8)
  br label %70

60:                                               ; preds = %56
  %61 = load i8, ptr %11, align 1
  %62 = trunc i8 %61 to i1
  br i1 %62, label %63, label %64

63:                                               ; preds = %60
  call void @_ZN7glslang11RoundToPow2IiEEvRT_i(ptr noundef nonnull align 4 dereferenceable(4) %7, i32 noundef 4)
  br label %69

64:                                               ; preds = %60
  %65 = load i8, ptr %12, align 1
  %66 = trunc i8 %65 to i1
  br i1 %66, label %67, label %68

67:                                               ; preds = %64
  call void @_ZN7glslang11RoundToPow2IiEEvRT_i(ptr noundef nonnull align 4 dereferenceable(4) %7, i32 noundef 2)
  br label %68

68:                                               ; preds = %67, %64
  br label %69

69:                                               ; preds = %68, %63
  br label %70

70:                                               ; preds = %69, %59
  %71 = load i32, ptr %7, align 4
  %72 = load ptr, ptr %9, align 8
  %73 = getelementptr inbounds %"class.glslang::TQualifier", ptr %72, i32 0, i32 7
  %74 = zext i32 %71 to i64
  %75 = load i64, ptr %73, align 4
  %76 = and i64 %74, 8191
  %77 = shl i64 %76, 18
  %78 = and i64 %75, -2147221505
  %79 = or i64 %78, %77
  store i64 %79, ptr %73, align 4
  br label %87

80:                                               ; preds = %34
  %81 = load ptr, ptr %9, align 8
  %82 = getelementptr inbounds %"class.glslang::TQualifier", ptr %81, i32 0, i32 7
  %83 = load i64, ptr %82, align 4
  %84 = lshr i64 %83, 18
  %85 = and i64 %84, 8191
  %86 = trunc i64 %85 to i32
  store i32 %86, ptr %7, align 4
  br label %87

87:                                               ; preds = %80, %70
  %88 = load i32, ptr %13, align 4
  %89 = load i32, ptr %7, align 4
  %90 = add nsw i32 %89, %88
  store i32 %90, ptr %7, align 4
  br label %91

91:                                               ; preds = %87
  %92 = load i32, ptr %8, align 4
  %93 = add i32 %92, 1
  store i32 %93, ptr %8, align 4
  br label %28, !llvm.loop !95

94:                                               ; preds = %28
  %95 = load ptr, ptr %5, align 8
  %96 = getelementptr inbounds %"class.glslang::TQualifier", ptr %95, i32 0, i32 7
  %97 = load i64, ptr %96, align 4
  %98 = and i64 %97, -2147221505
  %99 = or i64 %98, 2147221504
  store i64 %99, ptr %96, align 4
  br label %100

100:                                              ; preds = %94, %20
  ret void
}