; Function Attrs: mustprogress nounwind uwtable
define void @_ZN7glslang16HlslParseContext13fixXfbOffsetsERNS_10TQualifierERNS_7TVectorINS_8TTypeLocEEE(ptr nocapture noundef nonnull readonly align 8 dereferenceable(2489) %0, ptr nocapture noundef nonnull align 8 dereferenceable(80) %1, ptr nocapture noundef nonnull readonly align 8 dereferenceable(32) %2) local_unnamed_addr #0 align 2 {
  %4 = alloca i8, align 1
  %5 = alloca i8, align 1
  %6 = alloca i8, align 1
  %7 = getelementptr inbounds i8, ptr %1, i64 36
  %8 = load i64, ptr %7, align 4
  %9 = and i64 %8, 15
  %10 = icmp ne i64 %9, 15
  %11 = and i64 %8, 2147221504
  %12 = icmp ne i64 %11, 2147221504
  %or.cond = and i1 %10, %12
  br i1 %or.cond, label %13, label %78

13:                                               ; preds = %3
  %14 = getelementptr inbounds i8, ptr %2, i64 8
  %15 = getelementptr inbounds i8, ptr %2, i64 16
  %16 = load ptr, ptr %15, align 8
  %17 = load ptr, ptr %14, align 8
  %.not24 = icmp eq ptr %16, %17
  br i1 %.not24, label %._crit_edge, label %.lr.ph

.lr.ph:                                           ; preds = %13
  %18 = trunc i64 %8 to i32
  %19 = lshr i32 %18, 18
  %20 = getelementptr inbounds i8, ptr %0, i64 56
  br label %21

21:                                               ; preds = %.lr.ph, %65
  %22 = phi ptr [ %17, %.lr.ph ], [ %70, %65 ]
  %23 = phi i64 [ 0, %.lr.ph ], [ %68, %65 ]
  %.023 = phi i32 [ 0, %.lr.ph ], [ %67, %65 ]
  %.02022 = phi i32 [ %19, %.lr.ph ], [ %66, %65 ]
  %24 = getelementptr inbounds %"struct.glslang::TTypeLoc", ptr %22, i64 %23
  %25 = load ptr, ptr %24, align 8
  %26 = load ptr, ptr %25, align 8
  %27 = getelementptr inbounds i8, ptr %26, i64 80
  %28 = load ptr, ptr %27, align 8
  %29 = call noundef nonnull align 8 dereferenceable(80) ptr %28(ptr noundef nonnull align 8 dereferenceable(152) %25) #24
  store i8 0, ptr %4, align 1
  store i8 0, ptr %5, align 1
  store i8 0, ptr %6, align 1
  %30 = load ptr, ptr %20, align 8
  %31 = load ptr, ptr %14, align 8
  %32 = getelementptr inbounds %"struct.glslang::TTypeLoc", ptr %31, i64 %23
  %33 = load ptr, ptr %32, align 8
  %34 = call noundef i32 @_ZNK7glslang13TIntermediate18computeTypeXfbSizeERKNS_5TTypeERbS4_S4_(ptr noundef nonnull align 8 dereferenceable(2024) %30, ptr noundef nonnull align 8 dereferenceable(152) %33, ptr noundef nonnull align 1 dereferenceable(1) %4, ptr noundef nonnull align 1 dereferenceable(1) %5, ptr noundef nonnull align 1 dereferenceable(1) %6) #24
  %35 = getelementptr inbounds i8, ptr %29, i64 36
  %36 = load i64, ptr %35, align 4
  %37 = and i64 %36, 2147221504
  %.not = icmp eq i64 %37, 2147221504
  br i1 %.not, label %38, label %62

38:                                               ; preds = %21
  %39 = load i8, ptr %4, align 1
  %40 = trunc i8 %39 to i1
  br i1 %40, label %41, label %44

41:                                               ; preds = %38
  %42 = add i32 %.02022, 7
  %43 = and i32 %42, -8
  br label %56

44:                                               ; preds = %38
  %45 = load i8, ptr %5, align 1
  %46 = trunc i8 %45 to i1
  br i1 %46, label %47, label %50

47:                                               ; preds = %44
  %48 = add i32 %.02022, 3
  %49 = and i32 %48, -4
  br label %56

50:                                               ; preds = %44
  %51 = load i8, ptr %6, align 1
  %52 = trunc i8 %51 to i1
  br i1 %52, label %53, label %56

53:                                               ; preds = %50
  %54 = add i32 %.02022, 1
  %55 = and i32 %54, -2
  br label %56

56:                                               ; preds = %47, %53, %50, %41
  %.1 = phi i32 [ %43, %41 ], [ %49, %47 ], [ %55, %53 ], [ %.02022, %50 ]
  %57 = shl i32 %.1, 18
  %58 = and i32 %57, 2147221504
  %59 = zext nneg i32 %58 to i64
  %60 = and i64 %36, -2147221505
  %61 = or disjoint i64 %60, %59
  store i64 %61, ptr %35, align 4
  br label %65

62:                                               ; preds = %21
  %63 = trunc i64 %36 to i32
  %64 = lshr i32 %63, 18
  br label %65

65:                                               ; preds = %62, %56
  %.2 = phi i32 [ %64, %62 ], [ %.1, %56 ]
  %66 = add i32 %.2, %34
  %67 = add i32 %.023, 1
  %68 = zext i32 %67 to i64
  %69 = load ptr, ptr %15, align 8
  %70 = load ptr, ptr %14, align 8
  %71 = ptrtoint ptr %69 to i64
  %72 = ptrtoint ptr %70 to i64
  %73 = sub i64 %71, %72
  %74 = ashr exact i64 %73, 5
  %75 = icmp ugt i64 %74, %68
  br i1 %75, label %21, label %._crit_edge.loopexit, !llvm.loop !300

._crit_edge.loopexit:                             ; preds = %65
  %.pre = load i64, ptr %7, align 4
  br label %._crit_edge

._crit_edge:                                      ; preds = %._crit_edge.loopexit, %13
  %76 = phi i64 [ %.pre, %._crit_edge.loopexit ], [ %8, %13 ]
  %77 = or i64 %76, 2147221504
  store i64 %77, ptr %7, align 4
  br label %78

78:                                               ; preds = %3, %._crit_edge
  ret void
}